target datalayout = "e-m:e-p270:32:32-p271:32:32-p272:64:64-i64:64-i128:128-f80:128-n8:16:32:64-S128"
target triple = "x86_64-unknown-linux-gnu"

%struct.rtree_ctx_s = type { [16 x %struct.rtree_ctx_cache_elm_s], [8 x %struct.rtree_ctx_cache_elm_s] }
%struct.rtree_ctx_cache_elm_s = type { i64, ptr }
%struct.tsd_s = type { i8, i8, i64, i64, i64, i64, i64, i64, i64, i64, i64, i64, i64, i64, ptr, i64, i64, i64, ptr, ptr, %struct.ticker_geom_s, i8, %struct.tsd_binshards_s, %struct.tsd_link_t, i8, %struct.peak_s, %struct.activity_callback_thunk_s, %struct.tcache_slow_s, %struct.rtree_ctx_s, %struct.atomic_u8_t, i64, i64, i64, i64, %struct.tcache_s, %struct.witness_tsd_s }
%struct.ticker_geom_s = type { i32, i32 }
%struct.tsd_binshards_s = type { [39 x i8] }
%struct.tsd_link_t = type { ptr, ptr }
%struct.peak_s = type { i64, i64 }
%struct.activity_callback_thunk_s = type { ptr, ptr }
%struct.tcache_slow_s = type { %struct.anon.7, %struct.cache_bin_array_descriptor_s, ptr, i32, [39 x i8], [39 x i8], [39 x i8], ptr, ptr }
%struct.anon.7 = type { ptr, ptr }
%struct.cache_bin_array_descriptor_s = type { %struct.anon.8, ptr }
%struct.anon.8 = type { ptr, ptr }
%struct.atomic_u8_t = type { i8 }
%struct.tcache_s = type { ptr, [76 x %struct.cache_bin_s] }
%struct.cache_bin_s = type { ptr, %struct.cache_bin_stats_s, i16, i16, i16 }
%struct.cache_bin_stats_s = type { i64 }
%struct.witness_tsd_s = type { %struct.witness_list_t, i8 }
%struct.witness_list_t = type { ptr }
%struct.edata_s = type { i64, ptr, %union.anon.1, ptr, i64, %union.anon.2, %union.anon.5 }
%union.anon.1 = type { i64 }
%union.anon.2 = type { %union.anon.4 }
%union.anon.4 = type { %struct.edata_heap_link_t }
%struct.edata_heap_link_t = type { %struct.phn_link_s }
%struct.phn_link_s = type { ptr, ptr, ptr }
%union.anon.5 = type { %struct.slab_data_s }
%struct.slab_data_s = type { [8 x i64] }
%struct.emap_prepare_s = type { ptr, ptr, ptr, ptr }

; Function Attrs: nounwind uwtable
define internal void @edata_is_head_set(ptr noundef %edata, i1 noundef zeroext %is_head) #0 {
entry:
  %edata.addr = alloca ptr, align 8
  %is_head.addr = alloca i8, align 1
  store ptr %edata, ptr %edata.addr, align 8
  %frombool = zext i1 %is_head to i8
  store i8 %frombool, ptr %is_head.addr, align 1
  %0 = load ptr, ptr %edata.addr, align 8
  %e_bits = getelementptr inbounds %struct.edata_s, ptr %0, i32 0, i32 0
  %1 = load i64, ptr %e_bits, align 8
  %and = and i64 %1, -17592186044417
  %2 = load i8, ptr %is_head.addr, align 1
  %tobool = trunc i8 %2 to i1
  %conv = zext i1 %tobool to i64
  %shl = shl i64 %conv, 44
  %or = or i64 %and, %shl
  %3 = load ptr, ptr %edata.addr, align 8
  %e_bits1 = getelementptr inbounds %struct.edata_s, ptr %3, i32 0, i32 0
  store i64 %or, ptr %e_bits1, align 8
  ret void
}

; Function Attrs: nounwind uwtable
define internal void @edata_pai_set(ptr noundef %edata, i32 noundef %pai) #0 {
entry:
  %edata.addr = alloca ptr, align 8
  %pai.addr = alloca i32, align 4
  store ptr %edata, ptr %edata.addr, align 8
  store i32 %pai, ptr %pai.addr, align 4
  %0 = load ptr, ptr %edata.addr, align 8
  %e_bits = getelementptr inbounds %struct.edata_s, ptr %0, i32 0, i32 0
  %1 = load i64, ptr %e_bits, align 8
  %and = and i64 %1, -16385
  %2 = load i32, ptr %pai.addr, align 4
  %conv = zext i32 %2 to i64
  %shl = shl i64 %conv, 14
  %or = or i64 %and, %shl
  %3 = load ptr, ptr %edata.addr, align 8
  %e_bits1 = getelementptr inbounds %struct.edata_s, ptr %3, i32 0, i32 0
  store i64 %or, ptr %e_bits1, align 8
  ret void
}

; Function Attrs: nounwind uwtable
define internal void @edata_committed_set(ptr noundef %edata, i1 noundef zeroext %committed) #0 {
entry:
  %edata.addr = alloca ptr, align 8
  %committed.addr = alloca i8, align 1
  store ptr %edata, ptr %edata.addr, align 8
  %frombool = zext i1 %committed to i8
  store i8 %frombool, ptr %committed.addr, align 1
  %0 = load ptr, ptr %edata.addr, align 8
  %e_bits = getelementptr inbounds %struct.edata_s, ptr %0, i32 0, i32 0
  %1 = load i64, ptr %e_bits, align 8
  %and = and i64 %1, -8193
  %2 = load i8, ptr %committed.addr, align 1
  %tobool = trunc i8 %2 to i1
  %conv = zext i1 %tobool to i64
  %shl = shl i64 %conv, 13
  %or = or i64 %and, %shl
  %3 = load ptr, ptr %edata.addr, align 8
  %e_bits1 = getelementptr inbounds %struct.edata_s, ptr %3, i32 0, i32 0
  store i64 %or, ptr %e_bits1, align 8
  ret void
}

; Function Attrs: nounwind uwtable
define internal void @edata_zeroed_set(ptr noundef %edata, i1 noundef zeroext %zeroed) #0 {
entry:
  %edata.addr = alloca ptr, align 8
  %zeroed.addr = alloca i8, align 1
  store ptr %edata, ptr %edata.addr, align 8
  %frombool = zext i1 %zeroed to i8
  store i8 %frombool, ptr %zeroed.addr, align 1
  %0 = load ptr, ptr %edata.addr, align 8
  %e_bits = getelementptr inbounds %struct.edata_s, ptr %0, i32 0, i32 0
  %1 = load i64, ptr %e_bits, align 8
  %and = and i64 %1, -32769
  %2 = load i8, ptr %zeroed.addr, align 1
  %tobool = trunc i8 %2 to i1
  %conv = zext i1 %tobool to i64
  %shl = shl i64 %conv, 15
  %or = or i64 %and, %shl
  %3 = load ptr, ptr %edata.addr, align 8
  %e_bits1 = getelementptr inbounds %struct.edata_s, ptr %3, i32 0, i32 0
  store i64 %or, ptr %e_bits1, align 8
  ret void
}

; Function Attrs: nounwind uwtable
define internal void @edata_guarded_set(ptr noundef %edata, i1 noundef zeroext %guarded) #0 {
entry:
  %edata.addr = alloca ptr, align 8
  %guarded.addr = alloca i8, align 1
  store ptr %edata, ptr %edata.addr, align 8
  %frombool = zext i1 %guarded to i8
  store i8 %frombool, ptr %guarded.addr, align 1
  %0 = load ptr, ptr %edata.addr, align 8
  %e_bits = getelementptr inbounds %struct.edata_s, ptr %0, i32 0, i32 0
  %1 = load i64, ptr %e_bits, align 8
  %and = and i64 %1, -65537
  %2 = load i8, ptr %guarded.addr, align 1
  %tobool = trunc i8 %2 to i1
  %conv = zext i1 %tobool to i64
  %shl = shl i64 %conv, 16
  %or = or i64 %and, %shl
  %3 = load ptr, ptr %edata.addr, align 8
  %e_bits1 = getelementptr inbounds %struct.edata_s, ptr %3, i32 0, i32 0
  store i64 %or, ptr %e_bits1, align 8
  ret void
}

; Function Attrs: nounwind uwtable
define internal void @edata_state_set(ptr noundef %edata, i32 noundef %state) #0 {
entry:
  %edata.addr = alloca ptr, align 8
  %state.addr = alloca i32, align 4
  store ptr %edata, ptr %edata.addr, align 8
  store i32 %state, ptr %state.addr, align 4
  %0 = load ptr, ptr %edata.addr, align 8
  %e_bits = getelementptr inbounds %struct.edata_s, ptr %0, i32 0, i32 0
  %1 = load i64, ptr %e_bits, align 8
  %and = and i64 %1, -917505
  %2 = load i32, ptr %state.addr, align 4
  %conv = zext i32 %2 to i64
  %shl = shl i64 %conv, 17
  %or = or i64 %and, %shl
  %3 = load ptr, ptr %edata.addr, align 8
  %e_bits1 = getelementptr inbounds %struct.edata_s, ptr %3, i32 0, i32 0
  store i64 %or, ptr %e_bits1, align 8
  ret void
}

; Function Attrs: nounwind uwtable
define internal void @edata_sn_set(ptr noundef %edata, i64 noundef %sn) #0 {
entry:
  %edata.addr = alloca ptr, align 8
  %sn.addr = alloca i64, align 8
  store ptr %edata, ptr %edata.addr, align 8
  store i64 %sn, ptr %sn.addr, align 8
  %0 = load i64, ptr %sn.addr, align 8
  %1 = load ptr, ptr %edata.addr, align 8
  %e_sn = getelementptr inbounds %struct.edata_s, ptr %1, i32 0, i32 4
  store i64 %0, ptr %e_sn, align 8
  ret void
}

; Function Attrs: nounwind uwtable
define internal void @edata_szind_set(ptr noundef %edata, i32 noundef %szind) #0 {
entry:
  %edata.addr = alloca ptr, align 8
  %szind.addr = alloca i32, align 4
  store ptr %edata, ptr %edata.addr, align 8
  store i32 %szind, ptr %szind.addr, align 4
  br label %do.body

do.body:                                          ; preds = %entry
  br label %do.end

do.end:                                           ; preds = %do.body
  %0 = load ptr, ptr %edata.addr, align 8
  %e_bits = getelementptr inbounds %struct.edata_s, ptr %0, i32 0, i32 0
  %1 = load i64, ptr %e_bits, align 8
  %and = and i64 %1, -267386881
  %2 = load i32, ptr %szind.addr, align 4
  %conv = zext i32 %2 to i64
  %shl = shl i64 %conv, 20
  %or = or i64 %and, %shl
  %3 = load ptr, ptr %edata.addr, align 8
  %e_bits1 = getelementptr inbounds %struct.edata_s, ptr %3, i32 0, i32 0
  store i64 %or, ptr %e_bits1, align 8
  ret void
}

; Function Attrs: nounwind uwtable
define internal void @edata_slab_set(ptr noundef %edata, i1 noundef zeroext %slab) #0 {
entry:
  %edata.addr = alloca ptr, align 8
  %slab.addr = alloca i8, align 1
  store ptr %edata, ptr %edata.addr, align 8
  %frombool = zext i1 %slab to i8
  store i8 %frombool, ptr %slab.addr, align 1
  %0 = load ptr, ptr %edata.addr, align 8
  %e_bits = getelementptr inbounds %struct.edata_s, ptr %0, i32 0, i32 0
  %1 = load i64, ptr %e_bits, align 8
  %and = and i64 %1, -4097
  %2 = load i8, ptr %slab.addr, align 1
  %tobool = trunc i8 %2 to i1
  %conv = zext i1 %tobool to i64
  %shl = shl i64 %conv, 12
  %or = or i64 %and, %shl
  %3 = load ptr, ptr %edata.addr, align 8
  %e_bits1 = getelementptr inbounds %struct.edata_s, ptr %3, i32 0, i32 0
  store i64 %or, ptr %e_bits1, align 8
  ret void
}

; Function Attrs: nounwind uwtable
define internal void @edata_size_set(ptr noundef %edata, i64 noundef %size) #0 {
entry:
  %edata.addr = alloca ptr, align 8
  %size.addr = alloca i64, align 8
  store ptr %edata, ptr %edata.addr, align 8
  store i64 %size, ptr %size.addr, align 8
  br label %do.body

do.body:                                          ; preds = %entry
  br label %do.end

do.end:                                           ; preds = %do.body
  %0 = load i64, ptr %size.addr, align 8
  %1 = load ptr, ptr %edata.addr, align 8
  %2 = getelementptr inbounds %struct.edata_s, ptr %1, i32 0, i32 2
  %3 = load i64, ptr %2, align 8
  %and = and i64 %3, 4095
  %or = or i64 %0, %and
  %4 = load ptr, ptr %edata.addr, align 8
  %5 = getelementptr inbounds %struct.edata_s, ptr %4, i32 0, i32 2
  store i64 %or, ptr %5, align 8
  ret void
}

; Function Attrs: nounwind uwtable
define internal void @edata_addr_set(ptr noundef %edata, ptr noundef %addr) #0 {
entry:
  %edata.addr = alloca ptr, align 8
  %addr.addr = alloca ptr, align 8
  store ptr %edata, ptr %edata.addr, align 8
  store ptr %addr, ptr %addr.addr, align 8
  %0 = load ptr, ptr %addr.addr, align 8
  %1 = load ptr, ptr %edata.addr, align 8
  %e_addr = getelementptr inbounds %struct.edata_s, ptr %1, i32 0, i32 1
  store ptr %0, ptr %e_addr, align 8
  ret void
}

; Function Attrs: nounwind uwtable
define internal void @edata_arena_ind_set(ptr noundef %edata, i32 noundef %arena_ind) #0 {
entry:
  %edata.addr = alloca ptr, align 8
  %arena_ind.addr = alloca i32, align 4
  store ptr %edata, ptr %edata.addr, align 8
  store i32 %arena_ind, ptr %arena_ind.addr, align 4
  %0 = load ptr, ptr %edata.addr, align 8
  %e_bits = getelementptr inbounds %struct.edata_s, ptr %0, i32 0, i32 0
  %1 = load i64, ptr %e_bits, align 8
  %and = and i64 %1, -4096
  %2 = load i32, ptr %arena_ind.addr, align 4
  %conv = zext i32 %2 to i64
  %shl = shl i64 %conv, 0
  %or = or i64 %and, %shl
  %3 = load ptr, ptr %edata.addr, align 8
  %e_bits1 = getelementptr inbounds %struct.edata_s, ptr %3, i32 0, i32 0
  store i64 %or, ptr %e_bits1, align 8
  ret void
}

; Function Attrs: nounwind uwtable
define internal void @edata_init(ptr noundef %edata, i32 noundef %arena_ind, ptr noundef %addr, i64 noundef %size, i1 noundef zeroext %slab, i32 noundef %szind, i64 noundef %sn, i32 noundef %state, i1 noundef zeroext %zeroed, i1 noundef zeroext %committed, i32 noundef %pai, i32 noundef %is_head) #0 {
entry:
  %edata.addr = alloca ptr, align 8
  %arena_ind.addr = alloca i32, align 4
  %addr.addr = alloca ptr, align 8
  %size.addr = alloca i64, align 8
  %slab.addr = alloca i8, align 1
  %szind.addr = alloca i32, align 4
  %sn.addr = alloca i64, align 8
  %state.addr = alloca i32, align 4
  %zeroed.addr = alloca i8, align 1
  %committed.addr = alloca i8, align 1
  %pai.addr = alloca i32, align 4
  %is_head.addr = alloca i32, align 4
  store ptr %edata, ptr %edata.addr, align 8
  store i32 %arena_ind, ptr %arena_ind.addr, align 4
  store ptr %addr, ptr %addr.addr, align 8
  store i64 %size, ptr %size.addr, align 8
  %frombool = zext i1 %slab to i8
  store i8 %frombool, ptr %slab.addr, align 1
  store i32 %szind, ptr %szind.addr, align 4
  store i64 %sn, ptr %sn.addr, align 8
  store i32 %state, ptr %state.addr, align 4
  %frombool1 = zext i1 %zeroed to i8
  store i8 %frombool1, ptr %zeroed.addr, align 1
  %frombool2 = zext i1 %committed to i8
  store i8 %frombool2, ptr %committed.addr, align 1
  store i32 %pai, ptr %pai.addr, align 4
  store i32 %is_head, ptr %is_head.addr, align 4
  br label %do.body

do.body:                                          ; preds = %entry
  br label %do.end

do.end:                                           ; preds = %do.body
  %0 = load ptr, ptr %edata.addr, align 8
  %1 = load i32, ptr %arena_ind.addr, align 4
  call void @edata_arena_ind_set(ptr noundef %0, i32 noundef %1)
  %2 = load ptr, ptr %edata.addr, align 8
  %3 = load ptr, ptr %addr.addr, align 8
  call void @edata_addr_set(ptr noundef %2, ptr noundef %3)
  %4 = load ptr, ptr %edata.addr, align 8
  %5 = load i64, ptr %size.addr, align 8
  call void @edata_size_set(ptr noundef %4, i64 noundef %5)
  %6 = load ptr, ptr %edata.addr, align 8
  %7 = load i8, ptr %slab.addr, align 1
  %tobool = trunc i8 %7 to i1
  call void @edata_slab_set(ptr noundef %6, i1 noundef zeroext %tobool)
  %8 = load ptr, ptr %edata.addr, align 8
  %9 = load i32, ptr %szind.addr, align 4
  call void @edata_szind_set(ptr noundef %8, i32 noundef %9)
  %10 = load ptr, ptr %edata.addr, align 8
  %11 = load i64, ptr %sn.addr, align 8
  call void @edata_sn_set(ptr noundef %10, i64 noundef %11)
  %12 = load ptr, ptr %edata.addr, align 8
  %13 = load i32, ptr %state.addr, align 4
  call void @edata_state_set(ptr noundef %12, i32 noundef %13)
  %14 = load ptr, ptr %edata.addr, align 8
  call void @edata_guarded_set(ptr noundef %14, i1 noundef zeroext false)
  %15 = load ptr, ptr %edata.addr, align 8
  %16 = load i8, ptr %zeroed.addr, align 1
  %tobool3 = trunc i8 %16 to i1
  call void @edata_zeroed_set(ptr noundef %15, i1 noundef zeroext %tobool3)
  %17 = load ptr, ptr %edata.addr, align 8
  %18 = load i8, ptr %committed.addr, align 1
  %tobool4 = trunc i8 %18 to i1
  call void @edata_committed_set(ptr noundef %17, i1 noundef zeroext %tobool4)
  %19 = load ptr, ptr %edata.addr, align 8
  %20 = load i32, ptr %pai.addr, align 4
  call void @edata_pai_set(ptr noundef %19, i32 noundef %20)
  %21 = load ptr, ptr %edata.addr, align 8
  %22 = load i32, ptr %is_head.addr, align 4
  %cmp = icmp eq i32 %22, 1
  call void @edata_is_head_set(ptr noundef %21, i1 noundef zeroext %cmp)
  ret void
}

; Function Attrs: nounwind uwtable
define internal ptr @edata_addr_get(ptr noundef %edata) #0 {
entry:
  %edata.addr = alloca ptr, align 8
  store ptr %edata, ptr %edata.addr, align 8
  br label %do.body

do.body:                                          ; preds = %entry
  br label %do.end

do.end:                                           ; preds = %do.body
  %0 = load ptr, ptr %edata.addr, align 8
  %e_addr = getelementptr inbounds %struct.edata_s, ptr %0, i32 0, i32 1
  %1 = load ptr, ptr %e_addr, align 8
  ret ptr %1
}

; Function Attrs: nounwind uwtable
define hidden zeroext i1 @emap_split_prepare(ptr noundef %tsdn, ptr noundef %emap, ptr noundef %prepare, ptr noundef %edata, i64 noundef %size_a, ptr noundef %trail, i64 noundef %size_b) #0 {
entry:
  %tsd.addr.i16 = alloca ptr, align 8
  %tsd.addr.i.i = alloca ptr, align 8
  %tsd.addr.i15 = alloca ptr, align 8
  %state.i = alloca i8, align 1
  %tsd.addr.i = alloca ptr, align 8
  %tsdn.addr.i14 = alloca ptr, align 8
  %tsdn.addr.i13 = alloca ptr, align 8
  %retval.i = alloca ptr, align 8
  %tsdn.addr.i = alloca ptr, align 8
  %fallback.addr.i = alloca ptr, align 8
  %retval = alloca i1, align 1
  %tsdn.addr = alloca ptr, align 8
  %emap.addr = alloca ptr, align 8
  %prepare.addr = alloca ptr, align 8
  %edata.addr = alloca ptr, align 8
  %size_a.addr = alloca i64, align 8
  %trail.addr = alloca ptr, align 8
  %size_b.addr = alloca i64, align 8
  %rtree_ctx_fallback = alloca %struct.rtree_ctx_s, align 8
  %rtree_ctx = alloca ptr, align 8
  %lead = alloca %struct.edata_s, align 8
  store ptr %tsdn, ptr %tsdn.addr, align 8
  store ptr %emap, ptr %emap.addr, align 8
  store ptr %prepare, ptr %prepare.addr, align 8
  store ptr %edata, ptr %edata.addr, align 8
  store i64 %size_a, ptr %size_a.addr, align 8
  store ptr %trail, ptr %trail.addr, align 8
  store i64 %size_b, ptr %size_b.addr, align 8
  %0 = load ptr, ptr %tsdn.addr, align 8
  store ptr %0, ptr %tsdn.addr.i, align 8
  store ptr %rtree_ctx_fallback, ptr %fallback.addr.i, align 8
  %1 = load ptr, ptr %tsdn.addr.i, align 8
  store ptr %1, ptr %tsdn.addr.i13, align 8
  %2 = load ptr, ptr %tsdn.addr.i13, align 8
  %cmp.i = icmp eq ptr %2, null
  br i1 %cmp.i, label %if.then.i, label %if.end.i

if.then.i:                                        ; preds = %entry
  %3 = load ptr, ptr %fallback.addr.i, align 8
  call void @rtree_ctx_data_init(ptr noundef %3) #5
  %4 = load ptr, ptr %fallback.addr.i, align 8
  store ptr %4, ptr %retval.i, align 8
  br label %tsdn_rtree_ctx.exit

if.end.i:                                         ; preds = %entry
  %5 = load ptr, ptr %tsdn.addr.i, align 8
  store ptr %5, ptr %tsdn.addr.i14, align 8
  %6 = load ptr, ptr %tsdn.addr.i14, align 8
  store ptr %6, ptr %tsd.addr.i, align 8
  %7 = load ptr, ptr %tsd.addr.i, align 8
  store ptr %7, ptr %tsd.addr.i15, align 8
  %8 = load ptr, ptr %tsd.addr.i15, align 8
  store ptr %8, ptr %tsd.addr.i.i, align 8
  %9 = load ptr, ptr %tsd.addr.i.i, align 8
  %state.i.i = getelementptr inbounds %struct.tsd_s, ptr %9, i32 0, i32 29
  %10 = load i8, ptr %state.i.i, align 8
  store i8 %10, ptr %state.i, align 1
  %11 = load ptr, ptr %tsd.addr.i15, align 8
  store ptr %11, ptr %tsd.addr.i16, align 8
  %12 = load ptr, ptr %tsd.addr.i16, align 8
  %cant_access_tsd_items_directly_use_a_getter_or_setter_rtree_ctx.i = getelementptr inbounds %struct.tsd_s, ptr %12, i32 0, i32 28
  store ptr %cant_access_tsd_items_directly_use_a_getter_or_setter_rtree_ctx.i, ptr %retval.i, align 8
  br label %tsdn_rtree_ctx.exit

tsdn_rtree_ctx.exit:                              ; preds = %if.end.i, %if.then.i
  %13 = load ptr, ptr %retval.i, align 8
  store ptr %13, ptr %rtree_ctx, align 8
  call void @llvm.memset.p0.i64(ptr align 8 %lead, i8 0, i64 128, i1 false)
  %14 = load ptr, ptr %edata.addr, align 8
  %call1 = call ptr @edata_addr_get(ptr noundef %14)
  %15 = load i64, ptr %size_a.addr, align 8
  call void @edata_init(ptr noundef %lead, i32 noundef 0, ptr noundef %call1, i64 noundef %15, i1 noundef zeroext false, i32 noundef 0, i64 noundef 0, i32 noundef 0, i1 noundef zeroext false, i1 noundef zeroext false, i32 noundef 0, i32 noundef 0)
  %16 = load ptr, ptr %tsdn.addr, align 8
  %17 = load ptr, ptr %emap.addr, align 8
  %18 = load ptr, ptr %rtree_ctx, align 8
  %19 = load ptr, ptr %prepare.addr, align 8
  %lead_elm_a = getelementptr inbounds %struct.emap_prepare_s, ptr %19, i32 0, i32 0
  %20 = load ptr, ptr %prepare.addr, align 8
  %lead_elm_b = getelementptr inbounds %struct.emap_prepare_s, ptr %20, i32 0, i32 1
  %call2 = call zeroext i1 @emap_rtree_leaf_elms_lookup(ptr noundef %16, ptr noundef %17, ptr noundef %18, ptr noundef %lead, i1 noundef zeroext false, i1 noundef zeroext true, ptr noundef %lead_elm_a, ptr noundef %lead_elm_b)
  %21 = load ptr, ptr %tsdn.addr, align 8
  %22 = load ptr, ptr %emap.addr, align 8
  %23 = load ptr, ptr %rtree_ctx, align 8
  %24 = load ptr, ptr %trail.addr, align 8
  %25 = load ptr, ptr %prepare.addr, align 8
  %trail_elm_a = getelementptr inbounds %struct.emap_prepare_s, ptr %25, i32 0, i32 2
  %26 = load ptr, ptr %prepare.addr, align 8
  %trail_elm_b = getelementptr inbounds %struct.emap_prepare_s, ptr %26, i32 0, i32 3
  %call3 = call zeroext i1 @emap_rtree_leaf_elms_lookup(ptr noundef %21, ptr noundef %22, ptr noundef %23, ptr noundef %24, i1 noundef zeroext false, i1 noundef zeroext true, ptr noundef %trail_elm_a, ptr noundef %trail_elm_b)
  %27 = load ptr, ptr %prepare.addr, align 8
  %lead_elm_a4 = getelementptr inbounds %struct.emap_prepare_s, ptr %27, i32 0, i32 0
  %28 = load ptr, ptr %lead_elm_a4, align 8
  %cmp = icmp eq ptr %28, null
  br i1 %cmp, label %if.then, label %lor.lhs.false

lor.lhs.false:                                    ; preds = %tsdn_rtree_ctx.exit
  %29 = load ptr, ptr %prepare.addr, align 8
  %lead_elm_b5 = getelementptr inbounds %struct.emap_prepare_s, ptr %29, i32 0, i32 1
  %30 = load ptr, ptr %lead_elm_b5, align 8
  %cmp6 = icmp eq ptr %30, null
  br i1 %cmp6, label %if.then, label %lor.lhs.false7

lor.lhs.false7:                                   ; preds = %lor.lhs.false
  %31 = load ptr, ptr %prepare.addr, align 8
  %trail_elm_a8 = getelementptr inbounds %struct.emap_prepare_s, ptr %31, i32 0, i32 2
  %32 = load ptr, ptr %trail_elm_a8, align 8
  %cmp9 = icmp eq ptr %32, null
  br i1 %cmp9, label %if.then, label %lor.lhs.false10

lor.lhs.false10:                                  ; preds = %lor.lhs.false7
  %33 = load ptr, ptr %prepare.addr, align 8
  %trail_elm_b11 = getelementptr inbounds %struct.emap_prepare_s, ptr %33, i32 0, i32 3
  %34 = load ptr, ptr %trail_elm_b11, align 8
  %cmp12 = icmp eq ptr %34, null
  br i1 %cmp12, label %if.then, label %if.end

if.then:                                          ; preds = %lor.lhs.false10, %lor.lhs.false7, %lor.lhs.false, %tsdn_rtree_ctx.exit
  store i1 true, ptr %retval, align 1
  br label %return

if.end:                                           ; preds = %lor.lhs.false10
  store i1 false, ptr %retval, align 1
  br label %return

return:                                           ; preds = %if.end, %if.then
  %35 = load i1, ptr %retval, align 1
  ret i1 %35
}