; Function Attrs: nounwind uwtable
define hidden zeroext i1 @emap_split_prepare(ptr noundef %tsdn, ptr noundef %emap, ptr nocapture noundef %prepare, ptr nocapture noundef readonly %edata, i64 noundef %size_a, ptr nocapture noundef readonly %trail, i64 noundef %size_b) local_unnamed_addr #0 {
entry:
  %rtree_ctx_fallback = alloca %struct.rtree_ctx_s, align 8
  %lead = alloca %struct.edata_s, align 8
  %cmp.i = icmp eq ptr %tsdn, null
  br i1 %cmp.i, label %if.then.i, label %if.end.i

if.then.i:                                        ; preds = %entry
  call void @rtree_ctx_data_init(ptr noundef nonnull %rtree_ctx_fallback) #4
  br label %tsdn_rtree_ctx.exit

if.end.i:                                         ; preds = %entry
  %cant_access_tsd_items_directly_use_a_getter_or_setter_rtree_ctx.i = getelementptr inbounds i8, ptr %tsdn, i64 448
  br label %tsdn_rtree_ctx.exit

tsdn_rtree_ctx.exit:                              ; preds = %if.end.i, %if.then.i
  %retval.i.0 = phi ptr [ %rtree_ctx_fallback, %if.then.i ], [ %cant_access_tsd_items_directly_use_a_getter_or_setter_rtree_ctx.i, %if.end.i ]
  %0 = getelementptr inbounds i8, ptr %lead, i64 24
  call void @llvm.memset.p0.i64(ptr noundef nonnull align 8 dereferenceable(128) %0, i8 0, i64 104, i1 false)
  %1 = getelementptr i8, ptr %edata, i64 8
  %edata.val = load ptr, ptr %1, align 8
  %e_addr.i.i = getelementptr inbounds i8, ptr %lead, i64 8
  store ptr %edata.val, ptr %e_addr.i.i, align 8
  %2 = getelementptr inbounds i8, ptr %lead, i64 16
  store i64 %size_a, ptr %2, align 8
  store i64 0, ptr %lead, align 8
  %lead_elm_b = getelementptr inbounds i8, ptr %prepare, i64 8
  %call2 = call fastcc zeroext i1 @emap_rtree_leaf_elms_lookup(ptr noundef %tsdn, ptr noundef %emap, ptr noundef nonnull %retval.i.0, ptr noundef nonnull %lead, i1 noundef zeroext false, i1 noundef zeroext true, ptr noundef %prepare, ptr noundef nonnull %lead_elm_b)
  %trail_elm_a = getelementptr inbounds i8, ptr %prepare, i64 16
  %trail_elm_b = getelementptr inbounds i8, ptr %prepare, i64 24
  %call3 = call fastcc zeroext i1 @emap_rtree_leaf_elms_lookup(ptr noundef %tsdn, ptr noundef %emap, ptr noundef nonnull %retval.i.0, ptr noundef %trail, i1 noundef zeroext false, i1 noundef zeroext true, ptr noundef nonnull %trail_elm_a, ptr noundef nonnull %trail_elm_b)
  %3 = load ptr, ptr %prepare, align 8
  %cmp = icmp eq ptr %3, null
  br i1 %cmp, label %return, label %lor.lhs.false

lor.lhs.false:                                    ; preds = %tsdn_rtree_ctx.exit
  %4 = load ptr, ptr %lead_elm_b, align 8
  %cmp6 = icmp eq ptr %4, null
  br i1 %cmp6, label %return, label %lor.lhs.false7

lor.lhs.false7:                                   ; preds = %lor.lhs.false
  %5 = load ptr, ptr %trail_elm_a, align 8
  %cmp9 = icmp eq ptr %5, null
  br i1 %cmp9, label %return, label %lor.lhs.false10

lor.lhs.false10:                                  ; preds = %lor.lhs.false7
  %6 = load ptr, ptr %trail_elm_b, align 8
  %cmp12 = icmp eq ptr %6, null
  br label %return

return:                                           ; preds = %lor.lhs.false10, %tsdn_rtree_ctx.exit, %lor.lhs.false, %lor.lhs.false7
  %retval.0 = phi i1 [ true, %lor.lhs.false7 ], [ true, %lor.lhs.false ], [ true, %tsdn_rtree_ctx.exit ], [ %cmp12, %lor.lhs.false10 ]
  ret i1 %retval.0
}